; Function Attrs: mustprogress uwtable
define noundef nonnull align 8 dereferenceable(8) ptr @_ZN3gmx21CommandLineHelpWriter11setHelpTextERKNS_8ArrayRefIKPKcEE(ptr noundef nonnull readonly returned align 8 dereferenceable(8) %0, ptr nocapture noundef nonnull readonly align 8 dereferenceable(16) %1) local_unnamed_addr #0 align 2 {
  %3 = alloca %"class.gmx::IdentityFormatter", align 1
  %4 = alloca %"class.std::__cxx11::basic_string", align 8
  %.sroa.0.0.copyload.i.i = load ptr, ptr %1, align 8, !noalias !7
  %5 = getelementptr inbounds i8, ptr %1, i64 8
  %.sroa.0.0.copyload.i4.i = load ptr, ptr %5, align 8, !noalias !7
  call void @llvm.lifetime.start.p0(i64 1, ptr nonnull %3), !noalias !7
  call void @_ZN3gmx13formatAndJoinINS_12ArrayRefIterIKPKcEENS_17IdentityFormatterEEENSt7__cxx1112basic_stringIcSt11char_traitsIcESaIcEEET_SD_S3_RKT0_(ptr dead_on_unwind nonnull writable sret(%"class.std::__cxx11::basic_string") align 8 %4, ptr %.sroa.0.0.copyload.i.i, ptr %.sroa.0.0.copyload.i4.i, ptr noundef nonnull @.str.3, ptr noundef nonnull align 1 dereferenceable(1) %3)
  call void @llvm.lifetime.end.p0(i64 1, ptr nonnull %3), !noalias !7
  %6 = load ptr, ptr %0, align 8
  %7 = getelementptr inbounds i8, ptr %6, i64 8
  %8 = call noundef nonnull align 8 dereferenceable(32) ptr @_ZNSt7__cxx1112basic_stringIcSt11char_traitsIcESaIcEEaSEOS4_(ptr noundef nonnull align 8 dereferenceable(32) %7, ptr noundef nonnull align 8 dereferenceable(32) %4) #15
  call void @_ZNSt7__cxx1112basic_stringIcSt11char_traitsIcESaIcEED1Ev(ptr noundef nonnull align 8 dereferenceable(32) %4) #15
  ret ptr %0
}